; Function Attrs: mustprogress nofree norecurse nosync nounwind willreturn memory(readwrite, inaccessiblemem: none) uwtable
define internal noundef i32 @decode_3(ptr noundef readonly captures(none) %0) #9 {
  %2 = getelementptr inbounds nuw i8, ptr %0, i64 2656
  %3 = load ptr, ptr %2, align 8, !tbaa !84
  %4 = getelementptr inbounds nuw i8, ptr %0, i64 2672
  %5 = load ptr, ptr %4, align 8, !tbaa !82
  %6 = getelementptr inbounds nuw i8, ptr %0, i64 2700
  %7 = load i32, ptr %6, align 4, !tbaa !90
  %8 = zext i32 %7 to i64
  tail call void @llvm.memcpy.p0.p0.i64(ptr align 2 %3, ptr align 2 %5, i64 %8, i1 false)
  ret i32 0
}